target datalayout = "e-m:e-p270:32:32-p271:32:32-p272:64:64-i64:64-i128:128-f80:128-n8:16:32:64-S128"
target triple = "x86_64-pc-linux-gnu"

; Function Attrs: mustprogress nounwind uwtable
define i32 @u_getUnicodeProperties_77(i32 noundef %0, i32 noundef %1) #0 {
  %3 = alloca i32, align 4
  %4 = alloca i32, align 4
  %5 = alloca i32, align 4
  %6 = alloca i16, align 2
  store i32 %0, ptr %4, align 4, !tbaa !3
  store i32 %1, ptr %5, align 4, !tbaa !3
  %7 = load i32, ptr %5, align 4, !tbaa !3
  %8 = icmp sge i32 %7, 3
  br i1 %8, label %9, label %10

9:                                                ; preds = %2
  store i32 0, ptr %3, align 4
  br label %94

10:                                               ; preds = %2
  call void @llvm.lifetime.start.p0(i64 2, ptr %6) #6
  %11 = load ptr, ptr @_ZL16propsVectorsTrie, align 8, !tbaa !7
  %12 = load i32, ptr %4, align 4, !tbaa !3
  %13 = icmp ult i32 %12, 55296
  br i1 %13, label %14, label %27

14:                                               ; preds = %10
  %15 = load ptr, ptr @_ZL16propsVectorsTrie, align 8, !tbaa !7
  %16 = load i32, ptr %4, align 4, !tbaa !3
  %17 = ashr i32 %16, 5
  %18 = add nsw i32 0, %17
  %19 = sext i32 %18 to i64
  %20 = getelementptr inbounds i16, ptr %15, i64 %19
  %21 = load i16, ptr %20, align 2, !tbaa !14
  %22 = zext i16 %21 to i32
  %23 = shl i32 %22, 2
  %24 = load i32, ptr %4, align 4, !tbaa !3
  %25 = and i32 %24, 31
  %26 = add nsw i32 %23, %25
  br label %82

27:                                               ; preds = %10
  %28 = load i32, ptr %4, align 4, !tbaa !3
  %29 = icmp ule i32 %28, 65535
  br i1 %29, label %30, label %46

30:                                               ; preds = %27
  %31 = load ptr, ptr @_ZL16propsVectorsTrie, align 8, !tbaa !7
  %32 = load i32, ptr %4, align 4, !tbaa !3
  %33 = icmp sle i32 %32, 56319
  %34 = select i1 %33, i32 320, i32 0
  %35 = load i32, ptr %4, align 4, !tbaa !3
  %36 = ashr i32 %35, 5
  %37 = add nsw i32 %34, %36
  %38 = sext i32 %37 to i64
  %39 = getelementptr inbounds i16, ptr %31, i64 %38
  %40 = load i16, ptr %39, align 2, !tbaa !14
  %41 = zext i16 %40 to i32
  %42 = shl i32 %41, 2
  %43 = load i32, ptr %4, align 4, !tbaa !3
  %44 = and i32 %43, 31
  %45 = add nsw i32 %42, %44
  br label %80

46:                                               ; preds = %27
  %47 = load i32, ptr %4, align 4, !tbaa !3
  %48 = icmp ugt i32 %47, 1114111
  br i1 %48, label %49, label %50

49:                                               ; preds = %46
  br label %78

50:                                               ; preds = %46
  %51 = load i32, ptr %4, align 4, !tbaa !3
  %52 = icmp sge i32 %51, 1114112
  br i1 %52, label %53, label %54

53:                                               ; preds = %50
  br label %76

54:                                               ; preds = %50
  %55 = load ptr, ptr @_ZL16propsVectorsTrie, align 8, !tbaa !7
  %56 = load ptr, ptr @_ZL16propsVectorsTrie, align 8, !tbaa !7
  %57 = load i32, ptr %4, align 4, !tbaa !3
  %58 = ashr i32 %57, 11
  %59 = add nsw i32 2080, %58
  %60 = sext i32 %59 to i64
  %61 = getelementptr inbounds i16, ptr %56, i64 %60
  %62 = load i16, ptr %61, align 2, !tbaa !14
  %63 = zext i16 %62 to i32
  %64 = load i32, ptr %4, align 4, !tbaa !3
  %65 = ashr i32 %64, 5
  %66 = and i32 %65, 63
  %67 = add nsw i32 %63, %66
  %68 = sext i32 %67 to i64
  %69 = getelementptr inbounds i16, ptr %55, i64 %68
  %70 = load i16, ptr %69, align 2, !tbaa !14
  %71 = zext i16 %70 to i32
  %72 = shl i32 %71, 2
  %73 = load i32, ptr %4, align 4, !tbaa !3
  %74 = and i32 %73, 31
  %75 = add nsw i32 %72, %74
  br label %76

76:                                               ; preds = %54, %53
  %77 = phi i32 [ 32320, %53 ], [ %75, %54 ]
  br label %78

78:                                               ; preds = %76, %49
  %79 = phi i32 [ 5364, %49 ], [ %77, %76 ]
  br label %80

80:                                               ; preds = %78, %30
  %81 = phi i32 [ %45, %30 ], [ %79, %78 ]
  br label %82

82:                                               ; preds = %80, %14
  %83 = phi i32 [ %26, %14 ], [ %81, %80 ]
  %84 = sext i32 %83 to i64
  %85 = getelementptr inbounds i16, ptr %11, i64 %84
  %86 = load i16, ptr %85, align 2, !tbaa !14
  store i16 %86, ptr %6, align 2, !tbaa !14
  %87 = load i16, ptr %6, align 2, !tbaa !14
  %88 = zext i16 %87 to i32
  %89 = load i32, ptr %5, align 4, !tbaa !3
  %90 = add nsw i32 %88, %89
  %91 = sext i32 %90 to i64
  %92 = getelementptr inbounds [6426 x i32], ptr @_ZL12propsVectors, i64 0, i64 %91
  %93 = load i32, ptr %92, align 4, !tbaa !3
  store i32 %93, ptr %3, align 4
  call void @llvm.lifetime.end.p0(i64 2, ptr %6) #6
  br label %94

94:                                               ; preds = %82, %9
  %95 = load i32, ptr %3, align 4
  ret i32 %95
}

; Function Attrs: inlinehint mustprogress nounwind uwtable
define internal noundef signext i8 @_ZL9U_FAILURE10UErrorCode(i32 noundef %0) #5 {
  %2 = alloca i32, align 4
  store i32 %0, ptr %2, align 4, !tbaa !26
  %3 = load i32, ptr %2, align 4, !tbaa !26
  %4 = icmp sgt i32 %3, 0
  %5 = zext i1 %4 to i8
  ret i8 %5
}

; Function Attrs: mustprogress uwtable
define i32 @uscript_getScriptExtensions_77(i32 noundef %0, ptr noundef %1, i32 noundef %2, ptr noundef %3) #2 {
  %5 = alloca i32, align 4
  %6 = alloca i32, align 4
  %7 = alloca ptr, align 8
  %8 = alloca i32, align 4
  %9 = alloca ptr, align 8
  %10 = alloca i32, align 4
  %11 = alloca i32, align 4
  %12 = alloca i32, align 4
  %13 = alloca ptr, align 8
  %14 = alloca i32, align 4
  %15 = alloca i16, align 2
  store i32 %0, ptr %6, align 4, !tbaa !3
  store ptr %1, ptr %7, align 8, !tbaa !15
  store i32 %2, ptr %8, align 4, !tbaa !3
  store ptr %3, ptr %9, align 8, !tbaa !15
  %16 = load ptr, ptr %9, align 8, !tbaa !15
  %17 = icmp eq ptr %16, null
  br i1 %17, label %23, label %18

18:                                               ; preds = %4
  %19 = load ptr, ptr %9, align 8, !tbaa !15
  %20 = load i32, ptr %19, align 4, !tbaa !26
  %21 = call noundef signext i8 @_ZL9U_FAILURE10UErrorCode(i32 noundef %20)
  %22 = icmp ne i8 %21, 0
  br i1 %22, label %23, label %24

23:                                               ; preds = %18, %4
  store i32 0, ptr %5, align 4
  br label %98

24:                                               ; preds = %18
  %25 = load i32, ptr %8, align 4, !tbaa !3
  %26 = icmp slt i32 %25, 0
  br i1 %26, label %33, label %27

27:                                               ; preds = %24
  %28 = load i32, ptr %8, align 4, !tbaa !3
  %29 = icmp sgt i32 %28, 0
  br i1 %29, label %30, label %35

30:                                               ; preds = %27
  %31 = load ptr, ptr %7, align 8, !tbaa !15
  %32 = icmp eq ptr %31, null
  br i1 %32, label %33, label %35

33:                                               ; preds = %30, %24
  %34 = load ptr, ptr %9, align 8, !tbaa !15
  store i32 1, ptr %34, align 4, !tbaa !26
  store i32 0, ptr %5, align 4
  br label %98

35:                                               ; preds = %30, %27
  call void @llvm.lifetime.start.p0(i64 4, ptr %10) #6
  %36 = load i32, ptr %6, align 4, !tbaa !3
  %37 = call i32 @u_getUnicodeProperties_77(i32 noundef %36, i32 noundef 0)
  %38 = and i32 %37, 4095
  store i32 %38, ptr %10, align 4, !tbaa !3
  call void @llvm.lifetime.start.p0(i64 4, ptr %11) #6
  %39 = load i32, ptr %10, align 4, !tbaa !3
  %40 = and i32 %39, 1023
  store i32 %40, ptr %11, align 4, !tbaa !3
  %41 = load i32, ptr %10, align 4, !tbaa !3
  %42 = icmp ult i32 %41, 1024
  br i1 %42, label %43, label %53

43:                                               ; preds = %35
  %44 = load i32, ptr %8, align 4, !tbaa !3
  %45 = icmp eq i32 %44, 0
  br i1 %45, label %46, label %48

46:                                               ; preds = %43
  %47 = load ptr, ptr %9, align 8, !tbaa !15
  store i32 15, ptr %47, align 4, !tbaa !26
  br label %52

48:                                               ; preds = %43
  %49 = load i32, ptr %11, align 4, !tbaa !3
  %50 = load ptr, ptr %7, align 8, !tbaa !15
  %51 = getelementptr inbounds i32, ptr %50, i64 0
  store i32 %49, ptr %51, align 4, !tbaa !28
  br label %52

52:                                               ; preds = %48, %46
  store i32 1, ptr %5, align 4
  store i32 1, ptr %12, align 4
  br label %97

53:                                               ; preds = %35
  call void @llvm.lifetime.start.p0(i64 8, ptr %13) #6
  %54 = load i32, ptr %11, align 4, !tbaa !3
  %55 = zext i32 %54 to i64
  %56 = getelementptr inbounds nuw i16, ptr @_ZL16scriptExtensions, i64 %55
  store ptr %56, ptr %13, align 8, !tbaa !30
  %57 = load i32, ptr %10, align 4, !tbaa !3
  %58 = icmp uge i32 %57, 3072
  br i1 %58, label %59, label %66

59:                                               ; preds = %53
  %60 = load ptr, ptr %13, align 8, !tbaa !30
  %61 = getelementptr inbounds i16, ptr %60, i64 1
  %62 = load i16, ptr %61, align 2, !tbaa !14
  %63 = zext i16 %62 to i32
  %64 = sext i32 %63 to i64
  %65 = getelementptr inbounds i16, ptr @_ZL16scriptExtensions, i64 %64
  store ptr %65, ptr %13, align 8, !tbaa !30
  br label %66

66:                                               ; preds = %59, %53
  call void @llvm.lifetime.start.p0(i64 4, ptr %14) #6
  store i32 0, ptr %14, align 4, !tbaa !3
  call void @llvm.lifetime.start.p0(i64 2, ptr %15) #6
  br label %67

67:                                               ; preds = %85, %66
  %68 = load ptr, ptr %13, align 8, !tbaa !30
  %69 = getelementptr inbounds nuw i16, ptr %68, i32 1
  store ptr %69, ptr %13, align 8, !tbaa !30
  %70 = load i16, ptr %68, align 2, !tbaa !14
  store i16 %70, ptr %15, align 2, !tbaa !14
  %71 = load i32, ptr %14, align 4, !tbaa !3
  %72 = load i32, ptr %8, align 4, !tbaa !3
  %73 = icmp slt i32 %71, %72
  br i1 %73, label %74, label %82

74:                                               ; preds = %67
  %75 = load i16, ptr %15, align 2, !tbaa !14
  %76 = zext i16 %75 to i32
  %77 = and i32 %76, 32767
  %78 = load ptr, ptr %7, align 8, !tbaa !15
  %79 = load i32, ptr %14, align 4, !tbaa !3
  %80 = sext i32 %79 to i64
  %81 = getelementptr inbounds i32, ptr %78, i64 %80
  store i32 %77, ptr %81, align 4, !tbaa !28
  br label %82

82:                                               ; preds = %74, %67
  %83 = load i32, ptr %14, align 4, !tbaa !3
  %84 = add nsw i32 %83, 1
  store i32 %84, ptr %14, align 4, !tbaa !3
  br label %85

85:                                               ; preds = %82
  %86 = load i16, ptr %15, align 2, !tbaa !14
  %87 = zext i16 %86 to i32
  %88 = icmp slt i32 %87, 32768
  br i1 %88, label %67, label %89, !llvm.loop !32

89:                                               ; preds = %85
  %90 = load i32, ptr %14, align 4, !tbaa !3
  %91 = load i32, ptr %8, align 4, !tbaa !3
  %92 = icmp sgt i32 %90, %91
  br i1 %92, label %93, label %95

93:                                               ; preds = %89
  %94 = load ptr, ptr %9, align 8, !tbaa !15
  store i32 15, ptr %94, align 4, !tbaa !26
  br label %95

95:                                               ; preds = %93, %89
  %96 = load i32, ptr %14, align 4, !tbaa !3
  store i32 %96, ptr %5, align 4
  store i32 1, ptr %12, align 4
  call void @llvm.lifetime.end.p0(i64 2, ptr %15) #6
  call void @llvm.lifetime.end.p0(i64 4, ptr %14) #6
  call void @llvm.lifetime.end.p0(i64 8, ptr %13) #6
  br label %97

97:                                               ; preds = %95, %52
  call void @llvm.lifetime.end.p0(i64 4, ptr %11) #6
  call void @llvm.lifetime.end.p0(i64 4, ptr %10) #6
  br label %98

98:                                               ; preds = %97, %33, %23
  %99 = load i32, ptr %5, align 4
  ret i32 %99
}