; Function Attrs: mustprogress nofree norecurse nosync nounwind memory(argmem: readwrite) uwtable
define i32 @uscript_getScriptExtensions_77(i32 noundef %0, ptr noundef writeonly %1, i32 noundef %2, ptr noundef %3) local_unnamed_addr #6 {
  %5 = icmp eq ptr %3, null
  br i1 %5, label %.loopexit, label %6

6:                                                ; preds = %4
  %7 = load i32, ptr %3, align 4, !tbaa !16
  %8 = icmp slt i32 %7, 1
  br i1 %8, label %9, label %.loopexit

9:                                                ; preds = %6
  %10 = icmp slt i32 %2, 0
  br i1 %10, label %14, label %11

11:                                               ; preds = %9
  %12 = icmp ne i32 %2, 0
  %13 = icmp eq ptr %1, null
  %or.cond = and i1 %13, %12
  br i1 %or.cond, label %14, label %15

14:                                               ; preds = %11, %9
  store i32 1, ptr %3, align 4, !tbaa !16
  br label %.loopexit

15:                                               ; preds = %11
  %16 = icmp ult i32 %0, 55296
  br i1 %16, label %17, label %19

17:                                               ; preds = %15
  %18 = lshr i32 %0, 5
  br label %.sink.split.i

19:                                               ; preds = %15
  %20 = icmp ult i32 %0, 65536
  br i1 %20, label %21, label %26

21:                                               ; preds = %19
  %22 = icmp samesign ult i32 %0, 56320
  %23 = select i1 %22, i32 320, i32 0
  %24 = lshr i32 %0, 5
  %25 = add nuw nsw i32 %23, %24
  br label %.sink.split.i

26:                                               ; preds = %19
  %27 = icmp ugt i32 %0, 1114111
  br i1 %27, label %u_getUnicodeProperties_77.exit, label %28

28:                                               ; preds = %26
  %29 = lshr i32 %0, 11
  %30 = zext nneg i32 %29 to i64
  %31 = getelementptr inbounds nuw i16, ptr @_ZL22propsVectorsTrie_index, i64 %30
  %32 = getelementptr inbounds nuw i8, ptr %31, i64 4160
  %33 = load i16, ptr %32, align 2, !tbaa !3
  %34 = zext i16 %33 to i32
  %35 = lshr i32 %0, 5
  %36 = and i32 %35, 63
  %37 = add nuw nsw i32 %36, %34
  br label %.sink.split.i

.sink.split.i:                                    ; preds = %28, %21, %17
  %.sink21.i = phi i32 [ %25, %21 ], [ %37, %28 ], [ %18, %17 ]
  %38 = zext nneg i32 %.sink21.i to i64
  %39 = getelementptr inbounds nuw i16, ptr @_ZL22propsVectorsTrie_index, i64 %38
  %40 = load i16, ptr %39, align 2, !tbaa !3
  %41 = zext i16 %40 to i32
  %42 = shl nuw nsw i32 %41, 2
  %43 = and i32 %0, 31
  %44 = add nuw nsw i32 %42, %43
  %45 = zext nneg i32 %44 to i64
  br label %u_getUnicodeProperties_77.exit

u_getUnicodeProperties_77.exit:                   ; preds = %26, %.sink.split.i
  %46 = phi i64 [ 5364, %26 ], [ %45, %.sink.split.i ]
  %47 = getelementptr inbounds nuw i16, ptr @_ZL22propsVectorsTrie_index, i64 %46
  %48 = load i16, ptr %47, align 2, !tbaa !3
  %49 = zext i16 %48 to i64
  %50 = getelementptr inbounds nuw [6426 x i32], ptr @_ZL12propsVectors, i64 0, i64 %49
  %51 = load i32, ptr %50, align 4, !tbaa !11
  %52 = and i32 %51, 4095
  %53 = and i32 %51, 1023
  %54 = icmp samesign ult i32 %52, 1024
  br i1 %54, label %55, label %59

55:                                               ; preds = %u_getUnicodeProperties_77.exit
  %56 = icmp eq i32 %2, 0
  br i1 %56, label %57, label %58

57:                                               ; preds = %55
  store i32 15, ptr %3, align 4, !tbaa !16
  br label %.loopexit

58:                                               ; preds = %55
  store i32 %53, ptr %1, align 4, !tbaa !19
  br label %.loopexit

59:                                               ; preds = %u_getUnicodeProperties_77.exit
  %60 = zext nneg i32 %53 to i64
  %61 = getelementptr inbounds nuw i16, ptr @_ZL16scriptExtensions, i64 %60
  %62 = icmp samesign ugt i32 %52, 3071
  br i1 %62, label %63, label %.backedge.preheader

63:                                               ; preds = %59
  %64 = getelementptr inbounds nuw i8, ptr %61, i64 2
  %65 = load i16, ptr %64, align 2, !tbaa !3
  %66 = zext i16 %65 to i64
  %67 = getelementptr inbounds nuw i16, ptr @_ZL16scriptExtensions, i64 %66
  br label %.backedge.preheader

.backedge.preheader:                              ; preds = %63, %59
  %.131.ph = phi ptr [ %61, %59 ], [ %67, %63 ]
  br label %.backedge

.backedge:                                        ; preds = %.backedge.backedge, %.backedge.preheader
  %.131 = phi ptr [ %.131.ph, %.backedge.preheader ], [ %68, %.backedge.backedge ]
  %.029 = phi i32 [ 0, %.backedge.preheader ], [ %.029.be, %.backedge.backedge ]
  %68 = getelementptr inbounds nuw i8, ptr %.131, i64 2
  %69 = load i16, ptr %.131, align 2, !tbaa !3
  %70 = icmp slt i32 %.029, %2
  br i1 %70, label %71, label %.thread

71:                                               ; preds = %.backedge
  %72 = and i16 %69, 32767
  %73 = zext nneg i16 %72 to i32
  %74 = zext nneg i32 %.029 to i64
  %75 = getelementptr inbounds nuw i32, ptr %1, i64 %74
  store i32 %73, ptr %75, align 4, !tbaa !19
  %76 = add nuw nsw i32 %.029, 1
  %77 = icmp sgt i16 %69, -1
  br i1 %77, label %.backedge.backedge, label %.loopexit

.backedge.backedge:                               ; preds = %71, %.thread
  %.029.be = phi i32 [ %76, %71 ], [ %78, %.thread ]
  br label %.backedge, !llvm.loop !21

.thread:                                          ; preds = %.backedge
  %78 = add nuw nsw i32 %.029, 1
  %79 = icmp sgt i16 %69, -1
  br i1 %79, label %.backedge.backedge, label %.thread36

.thread36:                                        ; preds = %.thread
  store i32 15, ptr %3, align 4, !tbaa !16
  br label %.loopexit

.loopexit:                                        ; preds = %71, %58, %57, %.thread36, %4, %6, %14
  %.0 = phi i32 [ 0, %14 ], [ 0, %6 ], [ 0, %4 ], [ 1, %58 ], [ 1, %57 ], [ %78, %.thread36 ], [ %76, %71 ]
  ret i32 %.0
}